target datalayout = "e-m:e-p270:32:32-p271:32:32-p272:64:64-i64:64-i128:128-f80:128-n8:16:32:64-S128"
target triple = "x86_64-pc-linux-gnu"

%struct.keyPattern = type { i32, ptr }

@.str.22 = private unnamed_addr constant [6 x i8] c"acl.c\00", align 1
@.str.32 = private unnamed_addr constant [2 x i8] c"~\00", align 1
@.str.33 = private unnamed_addr constant [4 x i8] c"%R~\00", align 1
@.str.34 = private unnamed_addr constant [4 x i8] c"%W~\00", align 1
@.str.35 = private unnamed_addr constant [34 x i8] c"Invalid key pattern flag detected\00", align 1

; Function Attrs: nounwind uwtable
define dso_local ptr @sdsCatPatternString(ptr noundef %0, ptr noundef %1) #0 {
  %3 = alloca ptr, align 8
  %4 = alloca ptr, align 8
  store ptr %0, ptr %3, align 8, !tbaa !5
  store ptr %1, ptr %4, align 8, !tbaa !32
  %5 = load ptr, ptr %4, align 8, !tbaa !32
  %6 = getelementptr inbounds nuw %struct.keyPattern, ptr %5, i32 0, i32 0
  %7 = load i32, ptr %6, align 8, !tbaa !37
  %8 = icmp eq i32 %7, 3
  br i1 %8, label %9, label %12

9:                                                ; preds = %2
  %10 = load ptr, ptr %3, align 8, !tbaa !5
  %11 = call ptr @sdscatlen(ptr noundef %10, ptr noundef @.str.32, i64 noundef 1)
  store ptr %11, ptr %3, align 8, !tbaa !5
  br label %31

12:                                               ; preds = %2
  %13 = load ptr, ptr %4, align 8, !tbaa !32
  %14 = getelementptr inbounds nuw %struct.keyPattern, ptr %13, i32 0, i32 0
  %15 = load i32, ptr %14, align 8, !tbaa !37
  %16 = icmp eq i32 %15, 1
  br i1 %16, label %17, label %20

17:                                               ; preds = %12
  %18 = load ptr, ptr %3, align 8, !tbaa !5
  %19 = call ptr @sdscatlen(ptr noundef %18, ptr noundef @.str.33, i64 noundef 3)
  store ptr %19, ptr %3, align 8, !tbaa !5
  br label %30

20:                                               ; preds = %12
  %21 = load ptr, ptr %4, align 8, !tbaa !32
  %22 = getelementptr inbounds nuw %struct.keyPattern, ptr %21, i32 0, i32 0
  %23 = load i32, ptr %22, align 8, !tbaa !37
  %24 = icmp eq i32 %23, 2
  br i1 %24, label %25, label %28

25:                                               ; preds = %20
  %26 = load ptr, ptr %3, align 8, !tbaa !5
  %27 = call ptr @sdscatlen(ptr noundef %26, ptr noundef @.str.34, i64 noundef 3)
  store ptr %27, ptr %3, align 8, !tbaa !5
  br label %29

28:                                               ; preds = %20
  call void (ptr, i32, ptr, ...) @_serverPanic(ptr noundef @.str.22, i32 noundef 337, ptr noundef @.str.35)
  call void @abort() #15
  unreachable

29:                                               ; preds = %25
  br label %30

30:                                               ; preds = %29, %17
  br label %31

31:                                               ; preds = %30, %9
  %32 = load ptr, ptr %3, align 8, !tbaa !5
  %33 = load ptr, ptr %4, align 8, !tbaa !32
  %34 = getelementptr inbounds nuw %struct.keyPattern, ptr %33, i32 0, i32 1
  %35 = load ptr, ptr %34, align 8, !tbaa !35
  %36 = call ptr @sdscatsds(ptr noundef %32, ptr noundef %35)
  ret ptr %36
}