; Function Attrs: nounwind uwtable
define dso_local ptr @sdsCatPatternString(ptr noundef %0, ptr noundef readonly captures(none) %1) local_unnamed_addr #0 {
  %3 = load i32, ptr %1, align 8, !tbaa !33
  switch i32 %3, label %10 [
    i32 3, label %4
    i32 1, label %6
    i32 2, label %8
  ]

4:                                                ; preds = %2
  %5 = tail call ptr @sdscatlen(ptr noundef %0, ptr noundef nonnull @.str.32, i64 noundef 1) #25
  br label %11

6:                                                ; preds = %2
  %7 = tail call ptr @sdscatlen(ptr noundef %0, ptr noundef nonnull @.str.33, i64 noundef 3) #25
  br label %11

8:                                                ; preds = %2
  %9 = tail call ptr @sdscatlen(ptr noundef %0, ptr noundef nonnull @.str.34, i64 noundef 3) #25
  br label %11

10:                                               ; preds = %2
  tail call void (ptr, i32, ptr, ...) @_serverPanic(ptr noundef nonnull @.str.22, i32 noundef 337, ptr noundef nonnull @.str.35) #25
  tail call void @abort() #27
  unreachable

11:                                               ; preds = %6, %8, %4
  %.0 = phi ptr [ %5, %4 ], [ %7, %6 ], [ %9, %8 ]
  %12 = getelementptr inbounds nuw i8, ptr %1, i64 8
  %13 = load ptr, ptr %12, align 8, !tbaa !30
  %14 = tail call ptr @sdscatsds(ptr noundef %.0, ptr noundef %13) #25
  ret ptr %14
}